; ModuleID = '37/920.c'
source_filename = "37/920.c"
target datalayout = "e-m:e-p270:32:32-p271:32:32-p272:64:64-i64:64-f80:128-n8:16:32:64-S128"
target triple = "x86_64-pc-linux-gnu"

@.str = private unnamed_addr constant [3 x i8] c"%d\00", align 1
@.str.1 = private unnamed_addr constant [3 x i8] c"%s\00", align 1
@.str.2 = private unnamed_addr constant [4 x i8] c"no\0A\00", align 1
@.str.3 = private unnamed_addr constant [4 x i8] c"%c\0A\00", align 1

; Function Attrs: noinline nounwind uwtable
define dso_local i32 @main() #0 {
  %1 = alloca i32, align 4
  %2 = alloca i32, align 4
  %3 = alloca i32, align 4
  %4 = alloca i32, align 4
  %5 = alloca i32, align 4
  %6 = alloca i32, align 4
  %7 = alloca i32, align 4
  %8 = alloca i32, align 4
  %9 = alloca [100 x i8], align 16
  %10 = alloca [100 x i8], align 16
  %11 = alloca [100 x i8], align 16
  store i32 0, i32* %1, align 4
  store i32 0, i32* %4, align 4
  store i32 0, i32* %7, align 4
  store i32 0, i32* %8, align 4
  store i32 0, i32* %5, align 4
  br label %12

12:                                               ; preds = %19, %0
  %13 = load i32, i32* %5, align 4
  %14 = icmp slt i32 %13, 100
  br i1 %14, label %15, label %22

15:                                               ; preds = %12
  %16 = load i32, i32* %5, align 4
  %17 = sext i32 %16 to i64
  %18 = getelementptr inbounds [100 x i8], [100 x i8]* %10, i64 0, i64 %17
  store i8 0, i8* %18, align 1
  br label %19

19:                                               ; preds = %15
  %20 = load i32, i32* %5, align 4
  %21 = add nsw i32 %20, 1
  store i32 %21, i32* %5, align 4
  br label %12

22:                                               ; preds = %12
  %23 = call i32 (i8*, ...) @__isoc99_scanf(i8* getelementptr inbounds ([3 x i8], [3 x i8]* @.str, i64 0, i64 0), i32* %2)
  br label %24

24:                                               ; preds = %128, %22
  %25 = load i32, i32* %7, align 4
  %26 = load i32, i32* %2, align 4
  %27 = icmp ne i32 %25, %26
  br i1 %27, label %28, label %129

28:                                               ; preds = %24
  %29 = getelementptr inbounds [100 x i8], [100 x i8]* %9, i64 0, i64 0
  %30 = call i32 (i8*, ...) @__isoc99_scanf(i8* getelementptr inbounds ([3 x i8], [3 x i8]* @.str.1, i64 0, i64 0), i8* %29)
  store i32 0, i32* %5, align 4
  br label %31

31:                                               ; preds = %44, %28
  %32 = load i32, i32* %5, align 4
  %33 = icmp slt i32 %32, 100
  br i1 %33, label %34, label %47

34:                                               ; preds = %31
  %35 = load i32, i32* %5, align 4
  %36 = sext i32 %35 to i64
  %37 = getelementptr inbounds [100 x i8], [100 x i8]* %9, i64 0, i64 %36
  %38 = load i8, i8* %37, align 1
  %39 = sext i8 %38 to i32
  %40 = icmp eq i32 %39, 0
  br i1 %40, label %41, label %43

41:                                               ; preds = %34
  %42 = load i32, i32* %5, align 4
  store i32 %42, i32* %6, align 4
  br label %47

43:                                               ; preds = %34
  br label %44

44:                                               ; preds = %43
  %45 = load i32, i32* %5, align 4
  %46 = add nsw i32 %45, 1
  store i32 %46, i32* %5, align 4
  br label %31

47:                                               ; preds = %41, %31
  store i32 0, i32* %5, align 4
  br label %48

48:                                               ; preds = %80, %47
  %49 = load i32, i32* %5, align 4
  %50 = load i32, i32* %6, align 4
  %51 = icmp slt i32 %49, %50
  br i1 %51, label %52, label %83

52:                                               ; preds = %48
  store i32 0, i32* %3, align 4
  br label %53

53:                                               ; preds = %76, %52
  %54 = load i32, i32* %3, align 4
  %55 = load i32, i32* %6, align 4
  %56 = icmp slt i32 %54, %55
  br i1 %56, label %57, label %79

57:                                               ; preds = %53
  %58 = load i32, i32* %5, align 4
  %59 = sext i32 %58 to i64
  %60 = getelementptr inbounds [100 x i8], [100 x i8]* %9, i64 0, i64 %59
  %61 = load i8, i8* %60, align 1
  %62 = sext i8 %61 to i32
  %63 = load i32, i32* %3, align 4
  %64 = sext i32 %63 to i64
  %65 = getelementptr inbounds [100 x i8], [100 x i8]* %9, i64 0, i64 %64
  %66 = load i8, i8* %65, align 1
  %67 = sext i8 %66 to i32
  %68 = icmp eq i32 %62, %67
  br i1 %68, label %69, label %75

69:                                               ; preds = %57
  %70 = load i32, i32* %5, align 4
  %71 = sext i32 %70 to i64
  %72 = getelementptr inbounds [100 x i8], [100 x i8]* %10, i64 0, i64 %71
  %73 = load i8, i8* %72, align 1
  %74 = add i8 %73, 1
  store i8 %74, i8* %72, align 1
  br label %75

75:                                               ; preds = %69, %57
  br label %76

76:                                               ; preds = %75
  %77 = load i32, i32* %3, align 4
  %78 = add nsw i32 %77, 1
  store i32 %78, i32* %3, align 4
  br label %53

79:                                               ; preds = %53
  br label %80

80:                                               ; preds = %79
  %81 = load i32, i32* %5, align 4
  %82 = add nsw i32 %81, 1
  store i32 %82, i32* %5, align 4
  br label %48

83:                                               ; preds = %48
  store i32 0, i32* %5, align 4
  br label %84

84:                                               ; preds = %99, %83
  %85 = load i32, i32* %5, align 4
  %86 = load i32, i32* %6, align 4
  %87 = icmp slt i32 %85, %86
  br i1 %87, label %88, label %102

88:                                               ; preds = %84
  %89 = load i32, i32* %5, align 4
  %90 = sext i32 %89 to i64
  %91 = getelementptr inbounds [100 x i8], [100 x i8]* %10, i64 0, i64 %90
  %92 = load i8, i8* %91, align 1
  %93 = sext i8 %92 to i32
  %94 = icmp eq i32 %93, 1
  br i1 %94, label %95, label %98

95:                                               ; preds = %88
  %96 = load i32, i32* %5, align 4
  %97 = add nsw i32 %96, 1
  store i32 %97, i32* %4, align 4
  br label %102

98:                                               ; preds = %88
  br label %99

99:                                               ; preds = %98
  %100 = load i32, i32* %5, align 4
  %101 = add nsw i32 %100, 1
  store i32 %101, i32* %5, align 4
  br label %84

102:                                              ; preds = %95, %84
  %103 = load i32, i32* %4, align 4
  %104 = icmp eq i32 %103, 0
  br i1 %104, label %105, label %107

105:                                              ; preds = %102
  %106 = call i32 (i8*, ...) @printf(i8* getelementptr inbounds ([4 x i8], [4 x i8]* @.str.2, i64 0, i64 0))
  br label %115

107:                                              ; preds = %102
  %108 = load i32, i32* %4, align 4
  %109 = sub nsw i32 %108, 1
  %110 = sext i32 %109 to i64
  %111 = getelementptr inbounds [100 x i8], [100 x i8]* %9, i64 0, i64 %110
  %112 = load i8, i8* %111, align 1
  %113 = sext i8 %112 to i32
  %114 = call i32 (i8*, ...) @printf(i8* getelementptr inbounds ([4 x i8], [4 x i8]* @.str.3, i64 0, i64 0), i32 %113)
  br label %115

115:                                              ; preds = %107, %105
  %116 = load i32, i32* %7, align 4
  %117 = add nsw i32 %116, 1
  store i32 %117, i32* %7, align 4
  store i32 0, i32* %5, align 4
  br label %118

118:                                              ; preds = %125, %115
  %119 = load i32, i32* %5, align 4
  %120 = icmp slt i32 %119, 100
  br i1 %120, label %121, label %128

121:                                              ; preds = %118
  %122 = load i32, i32* %5, align 4
  %123 = sext i32 %122 to i64
  %124 = getelementptr inbounds [100 x i8], [100 x i8]* %10, i64 0, i64 %123
  store i8 0, i8* %124, align 1
  br label %125

125:                                              ; preds = %121
  %126 = load i32, i32* %5, align 4
  %127 = add nsw i32 %126, 1
  store i32 %127, i32* %5, align 4
  br label %118

128:                                              ; preds = %118
  store i32 0, i32* %8, align 4
  store i32 0, i32* %4, align 4
  br label %24

129:                                              ; preds = %24
  %130 = call i32 @getchar()
  %131 = call i32 @getchar()
  %132 = call i32 @getchar()
  %133 = call i32 @getchar()
  %134 = load i32, i32* %1, align 4
  ret i32 %134
}

declare dso_local i32 @__isoc99_scanf(i8*, ...) #1

declare dso_local i32 @printf(i8*, ...) #1

declare dso_local i32 @getchar() #1


!llvm.module.flags = !{!0}
!llvm.ident = !{!1}

!0 = !{i32 1, !"wchar_size", i32 4}
!1 = !{!"clang version 10.0.0-4ubuntu1 "}
